target datalayout = "e-m:e-p270:32:32-p271:32:32-p272:64:64-i64:64-i128:128-f80:128-n8:16:32:64-S128"
target triple = "x86_64-pc-linux-gnu"

%struct.Vec_Wrd_t_ = type { i32, i32, ptr }

@__const.Vec_WrdStartTruthTables.Masks = private unnamed_addr constant [5 x i32] [i32 -1431655766, i32 -858993460, i32 -252645136, i32 -16711936, i32 -65536], align 16

; Function Attrs: nounwind uwtable
define internal ptr @Vec_WrdAlloc(i32 noundef %0) #0 {
  %2 = alloca i32, align 4
  %3 = alloca ptr, align 8
  store i32 %0, ptr %2, align 4
  %4 = call noalias ptr @malloc(i64 noundef 16) #8
  store ptr %4, ptr %3, align 8
  %5 = load i32, ptr %2, align 4
  %6 = icmp sgt i32 %5, 0
  br i1 %6, label %7, label %11

7:                                                ; preds = %1
  %8 = load i32, ptr %2, align 4
  %9 = icmp slt i32 %8, 16
  br i1 %9, label %10, label %11

10:                                               ; preds = %7
  store i32 16, ptr %2, align 4
  br label %11

11:                                               ; preds = %10, %7, %1
  %12 = load ptr, ptr %3, align 8
  %13 = getelementptr inbounds %struct.Vec_Wrd_t_, ptr %12, i32 0, i32 1
  store i32 0, ptr %13, align 4
  %14 = load i32, ptr %2, align 4
  %15 = load ptr, ptr %3, align 8
  %16 = getelementptr inbounds %struct.Vec_Wrd_t_, ptr %15, i32 0, i32 0
  store i32 %14, ptr %16, align 8
  %17 = load ptr, ptr %3, align 8
  %18 = getelementptr inbounds %struct.Vec_Wrd_t_, ptr %17, i32 0, i32 0
  %19 = load i32, ptr %18, align 8
  %20 = icmp ne i32 %19, 0
  br i1 %20, label %21, label %28

21:                                               ; preds = %11
  %22 = load ptr, ptr %3, align 8
  %23 = getelementptr inbounds %struct.Vec_Wrd_t_, ptr %22, i32 0, i32 0
  %24 = load i32, ptr %23, align 8
  %25 = sext i32 %24 to i64
  %26 = mul i64 8, %25
  %27 = call noalias ptr @malloc(i64 noundef %26) #8
  br label %29

28:                                               ; preds = %11
  br label %29

29:                                               ; preds = %28, %21
  %30 = phi ptr [ %27, %21 ], [ null, %28 ]
  %31 = load ptr, ptr %3, align 8
  %32 = getelementptr inbounds %struct.Vec_Wrd_t_, ptr %31, i32 0, i32 2
  store ptr %30, ptr %32, align 8
  %33 = load ptr, ptr %3, align 8
  ret ptr %33
}

; Function Attrs: nounwind uwtable
define internal ptr @Vec_WrdStart(i32 noundef %0) #0 {
  %2 = alloca i32, align 4
  %3 = alloca ptr, align 8
  store i32 %0, ptr %2, align 4
  %4 = load i32, ptr %2, align 4
  %5 = call ptr @Vec_WrdAlloc(i32 noundef %4)
  store ptr %5, ptr %3, align 8
  %6 = load i32, ptr %2, align 4
  %7 = load ptr, ptr %3, align 8
  %8 = getelementptr inbounds %struct.Vec_Wrd_t_, ptr %7, i32 0, i32 1
  store i32 %6, ptr %8, align 4
  %9 = load ptr, ptr %3, align 8
  %10 = getelementptr inbounds %struct.Vec_Wrd_t_, ptr %9, i32 0, i32 2
  %11 = load ptr, ptr %10, align 8
  %12 = load i32, ptr %2, align 4
  %13 = sext i32 %12 to i64
  %14 = mul i64 8, %13
  call void @llvm.memset.p0.i64(ptr align 8 %11, i8 0, i64 %14, i1 false)
  %15 = load ptr, ptr %3, align 8
  ret ptr %15
}

; Function Attrs: nounwind uwtable
define internal ptr @Vec_WrdStartTruthTables(i32 noundef %0) #0 {
  %2 = alloca i32, align 4
  %3 = alloca ptr, align 8
  %4 = alloca [5 x i32], align 16
  %5 = alloca i32, align 4
  %6 = alloca i32, align 4
  %7 = alloca i32, align 4
  %8 = alloca ptr, align 8
  store i32 %0, ptr %2, align 4
  call void @llvm.memcpy.p0.p0.i64(ptr align 16 %4, ptr align 16 @__const.Vec_WrdStartTruthTables.Masks, i64 20, i1 false)
  %9 = load i32, ptr %2, align 4
  %10 = icmp sle i32 %9, 6
  br i1 %10, label %11, label %12

11:                                               ; preds = %1
  br label %16

12:                                               ; preds = %1
  %13 = load i32, ptr %2, align 4
  %14 = sub nsw i32 %13, 6
  %15 = shl i32 1, %14
  br label %16

16:                                               ; preds = %12, %11
  %17 = phi i32 [ 1, %11 ], [ %15, %12 ]
  store i32 %17, ptr %7, align 4
  %18 = load i32, ptr %7, align 4
  %19 = load i32, ptr %2, align 4
  %20 = mul nsw i32 %18, %19
  %21 = call ptr @Vec_WrdStart(i32 noundef %20)
  store ptr %21, ptr %3, align 8
  store i32 0, ptr %5, align 4
  br label %22

22:                                               ; preds = %85, %16
  %23 = load i32, ptr %5, align 4
  %24 = load i32, ptr %2, align 4
  %25 = icmp slt i32 %23, %24
  br i1 %25, label %26, label %88

26:                                               ; preds = %22
  %27 = load ptr, ptr %3, align 8
  %28 = getelementptr inbounds %struct.Vec_Wrd_t_, ptr %27, i32 0, i32 2
  %29 = load ptr, ptr %28, align 8
  %30 = load i32, ptr %7, align 4
  %31 = load i32, ptr %5, align 4
  %32 = mul nsw i32 %30, %31
  %33 = sext i32 %32 to i64
  %34 = getelementptr inbounds i64, ptr %29, i64 %33
  store ptr %34, ptr %8, align 8
  %35 = load i32, ptr %5, align 4
  %36 = icmp slt i32 %35, 5
  br i1 %36, label %37, label %56

37:                                               ; preds = %26
  store i32 0, ptr %6, align 4
  br label %38

38:                                               ; preds = %52, %37
  %39 = load i32, ptr %6, align 4
  %40 = load i32, ptr %7, align 4
  %41 = mul nsw i32 2, %40
  %42 = icmp slt i32 %39, %41
  br i1 %42, label %43, label %55

43:                                               ; preds = %38
  %44 = load i32, ptr %5, align 4
  %45 = sext i32 %44 to i64
  %46 = getelementptr inbounds [5 x i32], ptr %4, i64 0, i64 %45
  %47 = load i32, ptr %46, align 4
  %48 = load ptr, ptr %8, align 8
  %49 = load i32, ptr %6, align 4
  %50 = sext i32 %49 to i64
  %51 = getelementptr inbounds i32, ptr %48, i64 %50
  store i32 %47, ptr %51, align 4
  br label %52

52:                                               ; preds = %43
  %53 = load i32, ptr %6, align 4
  %54 = add nsw i32 %53, 1
  store i32 %54, ptr %6, align 4
  br label %38, !llvm.loop !14

55:                                               ; preds = %38
  br label %84

56:                                               ; preds = %26
  store i32 0, ptr %6, align 4
  br label %57

57:                                               ; preds = %80, %56
  %58 = load i32, ptr %6, align 4
  %59 = load i32, ptr %7, align 4
  %60 = mul nsw i32 2, %59
  %61 = icmp slt i32 %58, %60
  br i1 %61, label %62, label %83

62:                                               ; preds = %57
  %63 = load i32, ptr %6, align 4
  %64 = load i32, ptr %5, align 4
  %65 = sub nsw i32 %64, 5
  %66 = shl i32 1, %65
  %67 = and i32 %63, %66
  %68 = icmp ne i32 %67, 0
  br i1 %68, label %69, label %74

69:                                               ; preds = %62
  %70 = load ptr, ptr %8, align 8
  %71 = load i32, ptr %6, align 4
  %72 = sext i32 %71 to i64
  %73 = getelementptr inbounds i32, ptr %70, i64 %72
  store i32 -1, ptr %73, align 4
  br label %79

74:                                               ; preds = %62
  %75 = load ptr, ptr %8, align 8
  %76 = load i32, ptr %6, align 4
  %77 = sext i32 %76 to i64
  %78 = getelementptr inbounds i32, ptr %75, i64 %77
  store i32 0, ptr %78, align 4
  br label %79

79:                                               ; preds = %74, %69
  br label %80

80:                                               ; preds = %79
  %81 = load i32, ptr %6, align 4
  %82 = add nsw i32 %81, 1
  store i32 %82, ptr %6, align 4
  br label %57, !llvm.loop !15

83:                                               ; preds = %57
  br label %84

84:                                               ; preds = %83, %55
  br label %85

85:                                               ; preds = %84
  %86 = load i32, ptr %5, align 4
  %87 = add nsw i32 %86, 1
  store i32 %87, ptr %5, align 4
  br label %22, !llvm.loop !16

88:                                               ; preds = %22
  %89 = load ptr, ptr %3, align 8
  ret ptr %89
}