; Function Attrs: nofree nounwind memory(write, inaccessiblemem: readwrite) uwtable
define internal fastcc noalias noundef ptr @Vec_WrdStartTruthTables(i32 noundef %0) unnamed_addr #5 {
  %2 = icmp slt i32 %0, 7
  %3 = add nsw i32 %0, -6
  %4 = shl nuw i32 1, %3
  %.fr = freeze i32 %4
  %5 = select i1 %2, i32 1, i32 %.fr
  %6 = select i1 %2, i32 0, i32 %3
  %7 = shl i32 %0, %6
  %8 = tail call noalias dereferenceable_or_null(16) ptr @malloc(i64 noundef 16) #13
  %9 = add i32 %7, -1
  %or.cond.i.i = icmp ult i32 %9, 15
  %spec.store.select.i.i = select i1 %or.cond.i.i, i32 16, i32 %7
  store i32 %spec.store.select.i.i, ptr %8, align 8
  %.not.i.i = icmp eq i32 %spec.store.select.i.i, 0
  br i1 %.not.i.i, label %Vec_WrdStart.exit, label %10

10:                                               ; preds = %1
  %11 = sext i32 %spec.store.select.i.i to i64
  %12 = shl nsw i64 %11, 3
  %13 = tail call noalias ptr @malloc(i64 noundef %12) #13
  br label %Vec_WrdStart.exit

Vec_WrdStart.exit:                                ; preds = %1, %10
  %14 = phi ptr [ %13, %10 ], [ null, %1 ]
  %15 = getelementptr inbounds nuw i8, ptr %8, i64 4
  %16 = getelementptr inbounds nuw i8, ptr %8, i64 8
  store ptr %14, ptr %16, align 8
  store i32 %7, ptr %15, align 4
  %17 = sext i32 %7 to i64
  %18 = shl nsw i64 %17, 3
  tail call void @llvm.memset.p0.i64(ptr align 8 %14, i8 0, i64 %18, i1 false)
  %19 = icmp sgt i32 %0, 0
  %20 = icmp sgt i32 %5, 0
  %or.cond = and i1 %19, %20
  br i1 %or.cond, label %.lr.ph34.split.us.split.us.preheader, label %._crit_edge

.lr.ph34.split.us.split.us.preheader:             ; preds = %Vec_WrdStart.exit
  %21 = shl nuw i32 %5, 1
  %smax64 = tail call i32 @llvm.smax.i32(i32 %21, i32 1)
  %wide.trip.count76 = zext nneg i32 %0 to i64
  %wide.trip.count65 = zext nneg i32 %smax64 to i64
  %wide.trip.count71 = zext nneg i32 %smax64 to i64
  br label %.lr.ph34.split.us.split.us

.lr.ph34.split.us.split.us:                       ; preds = %.lr.ph34.split.us.split.us.preheader, %..loopexit28_crit_edge.us.us
  %indvars.iv73 = phi i64 [ 0, %.lr.ph34.split.us.split.us.preheader ], [ %indvars.iv.next74, %..loopexit28_crit_edge.us.us ]
  %22 = trunc nuw nsw i64 %indvars.iv73 to i32
  %23 = shl i32 %22, %6
  %24 = sext i32 %23 to i64
  %25 = getelementptr inbounds i64, ptr %14, i64 %24
  %26 = icmp samesign ult i64 %indvars.iv73, 5
  br i1 %26, label %.preheader.us.us, label %.preheader27.us.us

27:                                               ; preds = %.preheader27.us.us, %27
  %indvars.iv61 = phi i64 [ 0, %.preheader27.us.us ], [ %indvars.iv.next62, %27 ]
  %28 = trunc nuw nsw i64 %indvars.iv61 to i32
  %29 = and i32 %37, %28
  %.not.us.us = icmp ne i32 %29, 0
  %spec.select = sext i1 %.not.us.us to i32
  %30 = getelementptr inbounds nuw i32, ptr %25, i64 %indvars.iv61
  store i32 %spec.select, ptr %30, align 4
  %indvars.iv.next62 = add nuw nsw i64 %indvars.iv61, 1
  %exitcond66.not = icmp eq i64 %indvars.iv.next62, %wide.trip.count65
  br i1 %exitcond66.not, label %..loopexit28_crit_edge.us.us, label %27, !llvm.loop !12

..loopexit28_crit_edge.us.us:                     ; preds = %27, %31
  %indvars.iv.next74 = add nuw nsw i64 %indvars.iv73, 1
  %exitcond77.not = icmp eq i64 %indvars.iv.next74, %wide.trip.count76
  br i1 %exitcond77.not, label %._crit_edge, label %.lr.ph34.split.us.split.us, !llvm.loop !13

31:                                               ; preds = %.preheader.us.us, %31
  %indvars.iv67 = phi i64 [ 0, %.preheader.us.us ], [ %indvars.iv.next68, %31 ]
  %32 = getelementptr inbounds nuw i32, ptr %25, i64 %indvars.iv67
  store i32 %34, ptr %32, align 4
  %indvars.iv.next68 = add nuw nsw i64 %indvars.iv67, 1
  %exitcond72.not = icmp eq i64 %indvars.iv.next68, %wide.trip.count71
  br i1 %exitcond72.not, label %..loopexit28_crit_edge.us.us, label %31, !llvm.loop !14

.preheader.us.us:                                 ; preds = %.lr.ph34.split.us.split.us
  %33 = getelementptr inbounds nuw [5 x i32], ptr @__const.Vec_WrdStartTruthTables.Masks, i64 0, i64 %indvars.iv73
  %34 = load i32, ptr %33, align 4
  br label %31

.preheader27.us.us:                               ; preds = %.lr.ph34.split.us.split.us
  %35 = trunc i64 %indvars.iv73 to i32
  %36 = add i32 %35, -5
  %37 = shl nuw i32 1, %36
  br label %27

._crit_edge:                                      ; preds = %..loopexit28_crit_edge.us.us, %Vec_WrdStart.exit
  ret ptr %8
}